libHalf.so.10:_Z9printBitsPc4half
libHalf.so.10:_Z9printBitsPcf
libHalf.so.10:_Z9printBitsRSo4half
libHalf.so.10:_Z9printBitsRSof
libHalf.so.10:_ZN4half7convertEi
libHalf.so.10:_ZN4half8overflowEv
libHalf.so.10:_ZlsRSo4half
libHalf.so.10:_ZrsRSiR4half
libIex-2_0.so.10:_Z13iex_debugTrapv
libIex-2_0.so.10:_ZN7Iex_2_011stackTracerB5cxx11Ev
libIex-2_0.so.10:_ZN7Iex_2_013throwErrnoExcERKNSt7__cxx1112basic_stringIcSt11char_traitsIcESaIcEEE
libIex-2_0.so.10:_ZN7Iex_2_013throwErrnoExcERKNSt7__cxx1112basic_stringIcSt11char_traitsIcESaIcEEEi
libIex-2_0.so.10:_ZN7Iex_2_013throwErrnoExcEv
libIex-2_0.so.10:_ZN7Iex_2_014setStackTracerEPFNSt7__cxx1112basic_stringIcSt11char_traitsIcESaIcEEEvE
libIex-2_0.so.10:_ZN7Iex_2_07BaseExc6appendERNSt7__cxx1118basic_stringstreamIcSt11char_traitsIcESaIcEEE
libIex-2_0.so.10:_ZN7Iex_2_07BaseExc6assignERNSt7__cxx1118basic_stringstreamIcSt11char_traitsIcESaIcEEE
libIex-2_0.so.10:_ZN7Iex_2_07BaseExcC1EPKc
libIex-2_0.so.10:_ZN7Iex_2_07BaseExcC1ERKNSt7__cxx1112basic_stringIcSt11char_traitsIcESaIcEEE
libIex-2_0.so.10:_ZN7Iex_2_07BaseExcC1ERKS0_
libIex-2_0.so.10:_ZN7Iex_2_07BaseExcC1ERNSt7__cxx1118basic_stringstreamIcSt11char_traitsIcESaIcEEE
libIex-2_0.so.10:_ZN7Iex_2_07BaseExcC2EPKc
libIex-2_0.so.10:_ZN7Iex_2_07BaseExcC2ERKNSt7__cxx1112basic_stringIcSt11char_traitsIcESaIcEEE
libIex-2_0.so.10:_ZN7Iex_2_07BaseExcC2ERKS0_
libIex-2_0.so.10:_ZN7Iex_2_07BaseExcC2ERNSt7__cxx1118basic_stringstreamIcSt11char_traitsIcESaIcEEE
libIex-2_0.so.10:_ZN7Iex_2_07BaseExcD0Ev
libIex-2_0.so.10:_ZN7Iex_2_07BaseExcD1Ev
libIex-2_0.so.10:_ZN7Iex_2_07BaseExcD2Ev
libIex-2_0.so.10:_ZNK7Iex_2_07BaseExc4whatEv
libIexMath-2_0.so.10:_ZN7Iex_2_010FpuControl15clearExceptionsEv
libIexMath-2_0.so.10:_ZN7Iex_2_012fpExceptionsEv
libIexMath-2_0.so.10:_ZN7Iex_2_012getMathExcOnEv
libIexMath-2_0.so.10:_ZN7Iex_2_015setFpExceptionsEi
libIexMath-2_0.so.10:_ZN7Iex_2_021setFpExceptionHandlerEPFviPKcE
libIexMath-2_0.so.10:_ZN7Iex_2_030handleExceptionsSetInRegistersEv
libIexMath-2_0.so.10:_ZN7Iex_2_09MathExcOn27handleOutstandingExceptionsEv
libIexMath-2_0.so.10:_ZN7Iex_2_09mathExcOnEi
libIexMath-2_0.so.10:catchSigFpe
libIlmThread-2_0.so.10:_ZN13IlmThread_2_010ThreadPool13addGlobalTaskEPNS_4TaskE
libIlmThread-2_0.so.10:_ZN13IlmThread_2_010ThreadPool13setNumThreadsEi
libIlmThread-2_0.so.10:_ZN13IlmThread_2_010ThreadPool16globalThreadPoolEv
libIlmThread-2_0.so.10:_ZN13IlmThread_2_010ThreadPool4Data4stopEv
libIlmThread-2_0.so.10:_ZN13IlmThread_2_010ThreadPool4Data6finishEv
libIlmThread-2_0.so.10:_ZN13IlmThread_2_010ThreadPool4DataC1Ev
libIlmThread-2_0.so.10:_ZN13IlmThread_2_010ThreadPool4DataC2Ev
libIlmThread-2_0.so.10:_ZN13IlmThread_2_010ThreadPool4DataD1Ev
libIlmThread-2_0.so.10:_ZN13IlmThread_2_010ThreadPool4DataD2Ev
libIlmThread-2_0.so.10:_ZN13IlmThread_2_010ThreadPool7addTaskEPNS_4TaskE
libIlmThread-2_0.so.10:_ZN13IlmThread_2_010ThreadPoolC1Ej
libIlmThread-2_0.so.10:_ZN13IlmThread_2_010ThreadPoolC2Ej
libIlmThread-2_0.so.10:_ZN13IlmThread_2_010ThreadPoolD0Ev
libIlmThread-2_0.so.10:_ZN13IlmThread_2_010ThreadPoolD1Ev
libIlmThread-2_0.so.10:_ZN13IlmThread_2_010ThreadPoolD2Ev
libIlmThread-2_0.so.10:_ZN13IlmThread_2_015supportsThreadsEv
libIlmThread-2_0.so.10:_ZN13IlmThread_2_04Task5groupEv
libIlmThread-2_0.so.10:_ZN13IlmThread_2_04TaskC1EPNS_9TaskGroupE
libIlmThread-2_0.so.10:_ZN13IlmThread_2_04TaskC2EPNS_9TaskGroupE
libIlmThread-2_0.so.10:_ZN13IlmThread_2_04TaskD0Ev
libIlmThread-2_0.so.10:_ZN13IlmThread_2_04TaskD1Ev
libIlmThread-2_0.so.10:_ZN13IlmThread_2_04TaskD2Ev
libIlmThread-2_0.so.10:_ZN13IlmThread_2_05MutexC1Ev
libIlmThread-2_0.so.10:_ZN13IlmThread_2_05MutexC2Ev
libIlmThread-2_0.so.10:_ZN13IlmThread_2_05MutexD0Ev
libIlmThread-2_0.so.10:_ZN13IlmThread_2_05MutexD1Ev
libIlmThread-2_0.so.10:_ZN13IlmThread_2_05MutexD2Ev
libIlmThread-2_0.so.10:_ZN13IlmThread_2_06Thread5startEv
libIlmThread-2_0.so.10:_ZN13IlmThread_2_06ThreadC1Ev
libIlmThread-2_0.so.10:_ZN13IlmThread_2_06ThreadC2Ev
libIlmThread-2_0.so.10:_ZN13IlmThread_2_06ThreadD0Ev
libIlmThread-2_0.so.10:_ZN13IlmThread_2_06ThreadD1Ev
libIlmThread-2_0.so.10:_ZN13IlmThread_2_06ThreadD2Ev
libIlmThread-2_0.so.10:_ZN13IlmThread_2_09Semaphore4postEv
libIlmThread-2_0.so.10:_ZN13IlmThread_2_09Semaphore4waitEv
libIlmThread-2_0.so.10:_ZN13IlmThread_2_09Semaphore7tryWaitEv
libIlmThread-2_0.so.10:_ZN13IlmThread_2_09SemaphoreC1Ej
libIlmThread-2_0.so.10:_ZN13IlmThread_2_09SemaphoreC2Ej
libIlmThread-2_0.so.10:_ZN13IlmThread_2_09SemaphoreD0Ev
libIlmThread-2_0.so.10:_ZN13IlmThread_2_09SemaphoreD1Ev
libIlmThread-2_0.so.10:_ZN13IlmThread_2_09SemaphoreD2Ev
libIlmThread-2_0.so.10:_ZN13IlmThread_2_09TaskGroup4Data10removeTaskEv
libIlmThread-2_0.so.10:_ZN13IlmThread_2_09TaskGroup4Data7addTaskEv
libIlmThread-2_0.so.10:_ZN13IlmThread_2_09TaskGroup4DataC1Ev
libIlmThread-2_0.so.10:_ZN13IlmThread_2_09TaskGroup4DataC2Ev
libIlmThread-2_0.so.10:_ZN13IlmThread_2_09TaskGroup4DataD1Ev
libIlmThread-2_0.so.10:_ZN13IlmThread_2_09TaskGroup4DataD2Ev
libIlmThread-2_0.so.10:_ZN13IlmThread_2_09TaskGroupC1Ev
libIlmThread-2_0.so.10:_ZN13IlmThread_2_09TaskGroupC2Ev
libIlmThread-2_0.so.10:_ZN13IlmThread_2_09TaskGroupD1Ev
libIlmThread-2_0.so.10:_ZN13IlmThread_2_09TaskGroupD2Ev
libIlmThread-2_0.so.10:_ZNK13IlmThread_2_010ThreadPool10numThreadsEv
libIlmThread-2_0.so.10:_ZNK13IlmThread_2_010ThreadPool4Data7stoppedEv
libIlmThread-2_0.so.10:_ZNK13IlmThread_2_05Mutex4lockEv
libIlmThread-2_0.so.10:_ZNK13IlmThread_2_05Mutex6unlockEv
libIlmThread-2_0.so.10:_ZNK13IlmThread_2_09Semaphore5valueEv
libImath-2_0.so.10:_ZN9Imath_2_04Vec2IiE12normalizeExcEv
libImath-2_0.so.10:_ZN9Imath_2_04Vec2IiE16normalizeNonNullEv
libImath-2_0.so.10:_ZN9Imath_2_04Vec2IiE9normalizeEv
libImath-2_0.so.10:_ZN9Imath_2_04Vec2IsE12normalizeExcEv
libImath-2_0.so.10:_ZN9Imath_2_04Vec2IsE16normalizeNonNullEv
libImath-2_0.so.10:_ZN9Imath_2_04Vec2IsE9normalizeEv
libImath-2_0.so.10:_ZN9Imath_2_04Vec3IiE12normalizeExcEv
libImath-2_0.so.10:_ZN9Imath_2_04Vec3IiE16normalizeNonNullEv
libImath-2_0.so.10:_ZN9Imath_2_04Vec3IiE9normalizeEv
libImath-2_0.so.10:_ZN9Imath_2_04Vec3IsE12normalizeExcEv
libImath-2_0.so.10:_ZN9Imath_2_04Vec3IsE16normalizeNonNullEv
libImath-2_0.so.10:_ZN9Imath_2_04Vec3IsE9normalizeEv
libImath-2_0.so.10:_ZN9Imath_2_04Vec4IiE12normalizeExcEv
libImath-2_0.so.10:_ZN9Imath_2_04Vec4IiE16normalizeNonNullEv
libImath-2_0.so.10:_ZN9Imath_2_04Vec4IiE9normalizeEv
libImath-2_0.so.10:_ZN9Imath_2_04Vec4IsE12normalizeExcEv
libImath-2_0.so.10:_ZN9Imath_2_04Vec4IsE16normalizeNonNullEv
libImath-2_0.so.10:_ZN9Imath_2_04Vec4IsE9normalizeEv
libImath-2_0.so.10:_ZN9Imath_2_05preddEd
libImath-2_0.so.10:_ZN9Imath_2_05predfEf
libImath-2_0.so.10:_ZN9Imath_2_05succdEd
libImath-2_0.so.10:_ZN9Imath_2_05succfEf
libImath-2_0.so.10:_ZN9Imath_2_06Rand325nextfEv
libImath-2_0.so.10:_ZN9Imath_2_07drand48Ev
libImath-2_0.so.10:_ZN9Imath_2_07erand48EPt
libImath-2_0.so.10:_ZN9Imath_2_07lrand48Ev
libImath-2_0.so.10:_ZN9Imath_2_07nrand48EPt
libImath-2_0.so.10:_ZN9Imath_2_07srand48El
libImath-2_0.so.10:_ZN9Imath_2_09hsv2rgb_dERKNS_4Vec3IdEE
libImath-2_0.so.10:_ZN9Imath_2_09hsv2rgb_dERKNS_6Color4IdEE
libImath-2_0.so.10:_ZN9Imath_2_09rgb2hsv_dERKNS_4Vec3IdEE
libImath-2_0.so.10:_ZN9Imath_2_09rgb2hsv_dERKNS_6Color4IdEE
libImath-2_0.so.10:_ZNK9Imath_2_04Vec2IiE10normalizedEv
libImath-2_0.so.10:_ZNK9Imath_2_04Vec2IiE13normalizedExcEv
libImath-2_0.so.10:_ZNK9Imath_2_04Vec2IiE17normalizedNonNullEv
libImath-2_0.so.10:_ZNK9Imath_2_04Vec2IiE6lengthEv
libImath-2_0.so.10:_ZNK9Imath_2_04Vec2IsE10normalizedEv
libImath-2_0.so.10:_ZNK9Imath_2_04Vec2IsE13normalizedExcEv
libImath-2_0.so.10:_ZNK9Imath_2_04Vec2IsE17normalizedNonNullEv
libImath-2_0.so.10:_ZNK9Imath_2_04Vec2IsE6lengthEv
libImath-2_0.so.10:_ZNK9Imath_2_04Vec3IiE10normalizedEv
libImath-2_0.so.10:_ZNK9Imath_2_04Vec3IiE13normalizedExcEv
libImath-2_0.so.10:_ZNK9Imath_2_04Vec3IiE17normalizedNonNullEv
libImath-2_0.so.10:_ZNK9Imath_2_04Vec3IiE6lengthEv
libImath-2_0.so.10:_ZNK9Imath_2_04Vec3IsE10normalizedEv
libImath-2_0.so.10:_ZNK9Imath_2_04Vec3IsE13normalizedExcEv
libImath-2_0.so.10:_ZNK9Imath_2_04Vec3IsE17normalizedNonNullEv
libImath-2_0.so.10:_ZNK9Imath_2_04Vec3IsE6lengthEv
libImath-2_0.so.10:_ZNK9Imath_2_04Vec4IiE10normalizedEv
libImath-2_0.so.10:_ZNK9Imath_2_04Vec4IiE13normalizedExcEv
libImath-2_0.so.10:_ZNK9Imath_2_04Vec4IiE17normalizedNonNullEv
libImath-2_0.so.10:_ZNK9Imath_2_04Vec4IiE6lengthEv
libImath-2_0.so.10:_ZNK9Imath_2_04Vec4IsE10normalizedEv
libImath-2_0.so.10:_ZNK9Imath_2_04Vec4IsE13normalizedExcEv
libImath-2_0.so.10:_ZNK9Imath_2_04Vec4IsE17normalizedNonNullEv
libImath-2_0.so.10:_ZNK9Imath_2_04Vec4IsE6lengthEv
